target datalayout = "e-m:e-p270:32:32-p271:32:32-p272:64:64-i64:64-i128:128-f80:128-n8:16:32:64-S128"
target triple = "x86_64-pc-linux-gnu"

@.str.3 = private unnamed_addr constant [26 x i8] c"Parameter '%s' is invalid\00", align 1
@.str.4 = private unnamed_addr constant [5 x i8] c"name\00", align 1

; Function Attrs: nounwind uwtable
define hidden zeroext i1 @SDL_SetAppMetadataProperty_REAL(ptr noundef %0, ptr noundef %1) #2 {
  %3 = alloca i1, align 1
  %4 = alloca ptr, align 8
  %5 = alloca ptr, align 8
  store ptr %0, ptr %4, align 8
  store ptr %1, ptr %5, align 8
  %6 = load ptr, ptr %4, align 8
  %7 = call zeroext i1 @SDL_ValidMetadataProperty(ptr noundef %6)
  br i1 %7, label %10, label %8

8:                                                ; preds = %2
  %9 = call zeroext i1 (ptr, ...) @SDL_SetError_REAL(ptr noundef @.str.3, ptr noundef @.str.4)
  store i1 %9, ptr %3, align 1
  br label %15

10:                                               ; preds = %2
  %11 = call i32 @SDL_GetGlobalProperties_REAL()
  %12 = load ptr, ptr %4, align 8
  %13 = load ptr, ptr %5, align 8
  %14 = call zeroext i1 @SDL_SetStringProperty_REAL(i32 noundef %11, ptr noundef %12, ptr noundef %13)
  store i1 %14, ptr %3, align 1
  br label %15

15:                                               ; preds = %10, %8
  %16 = load i1, ptr %3, align 1
  ret i1 %16
}