; Function Attrs: nounwind uwtable
define hidden zeroext i1 @SDL_SetAppMetadataProperty_REAL(ptr noundef %0, ptr noundef %1) local_unnamed_addr #2 {
  %3 = tail call fastcc zeroext i1 @SDL_ValidMetadataProperty(ptr noundef %0)
  br i1 %3, label %6, label %4

4:                                                ; preds = %2
  %5 = tail call zeroext i1 (ptr, ...) @SDL_SetError_REAL(ptr noundef nonnull @.str.3, ptr noundef nonnull @.str.4) #11
  br label %9

6:                                                ; preds = %2
  %7 = tail call i32 @SDL_GetGlobalProperties_REAL() #11
  %8 = tail call zeroext i1 @SDL_SetStringProperty_REAL(i32 noundef %7, ptr noundef %0, ptr noundef %1) #11
  br label %9

9:                                                ; preds = %6, %4
  %.0 = phi i1 [ %8, %6 ], [ %5, %4 ]
  ret i1 %.0
}